target datalayout = "e-m:e-p270:32:32-p271:32:32-p272:64:64-i64:64-i128:128-f80:128-n8:16:32:64-S128"
target triple = "x86_64-pc-linux-gnu"

%union.yyjson_val_uni = type { i64 }
%struct.yyjson_val = type { i64, %union.yyjson_val_uni }

@.str.43 = private unnamed_addr constant [4 x i8] c"add\00", align 1
@.str.44 = private unnamed_addr constant [5 x i8] c"move\00", align 1
@.str.45 = private unnamed_addr constant [5 x i8] c"copy\00", align 1
@.str.46 = private unnamed_addr constant [5 x i8] c"test\00", align 1
@.str.47 = private unnamed_addr constant [7 x i8] c"remove\00", align 1
@.str.48 = private unnamed_addr constant [8 x i8] c"replace\00", align 1

; Function Attrs: alwaysinline nounwind uwtable
define internal i64 @unsafe_yyjson_get_len(ptr noundef %0) #4 {
  %2 = alloca ptr, align 8
  store ptr %0, ptr %2, align 8, !tbaa !9
  %3 = load ptr, ptr %2, align 8, !tbaa !9
  %4 = getelementptr inbounds nuw %struct.yyjson_val, ptr %3, i32 0, i32 0
  %5 = load i64, ptr %4, align 8, !tbaa !88
  %6 = lshr i64 %5, 8
  ret i64 %6
}

; Function Attrs: nounwind uwtable
define internal i32 @patch_op_get(ptr noundef %0) #0 {
  %2 = alloca i32, align 4
  %3 = alloca ptr, align 8
  %4 = alloca ptr, align 8
  %5 = alloca i32, align 4
  store ptr %0, ptr %3, align 8, !tbaa !86
  call void @llvm.lifetime.start.p0(i64 8, ptr %4) #13
  %6 = load ptr, ptr %3, align 8, !tbaa !86
  %7 = getelementptr inbounds nuw %struct.yyjson_val, ptr %6, i32 0, i32 1
  %8 = load ptr, ptr %7, align 8, !tbaa !87
  store ptr %8, ptr %4, align 8, !tbaa !92
  %9 = load ptr, ptr %3, align 8, !tbaa !86
  %10 = call i64 @unsafe_yyjson_get_len(ptr noundef %9)
  switch i64 %10, label %45 [
    i64 3, label %11
    i64 4, label %17
    i64 6, label %33
    i64 7, label %39
  ]

11:                                               ; preds = %1
  %12 = load ptr, ptr %4, align 8, !tbaa !92
  %13 = call i32 @memcmp(ptr noundef %12, ptr noundef @.str.43, i64 noundef 3) #16
  %14 = icmp ne i32 %13, 0
  br i1 %14, label %16, label %15

15:                                               ; preds = %11
  store i32 0, ptr %2, align 4
  store i32 1, ptr %5, align 4
  br label %46

16:                                               ; preds = %11
  store i32 6, ptr %2, align 4
  store i32 1, ptr %5, align 4
  br label %46

17:                                               ; preds = %1
  %18 = load ptr, ptr %4, align 8, !tbaa !92
  %19 = call i32 @memcmp(ptr noundef %18, ptr noundef @.str.44, i64 noundef 4) #16
  %20 = icmp ne i32 %19, 0
  br i1 %20, label %22, label %21

21:                                               ; preds = %17
  store i32 3, ptr %2, align 4
  store i32 1, ptr %5, align 4
  br label %46

22:                                               ; preds = %17
  %23 = load ptr, ptr %4, align 8, !tbaa !92
  %24 = call i32 @memcmp(ptr noundef %23, ptr noundef @.str.45, i64 noundef 4) #16
  %25 = icmp ne i32 %24, 0
  br i1 %25, label %27, label %26

26:                                               ; preds = %22
  store i32 4, ptr %2, align 4
  store i32 1, ptr %5, align 4
  br label %46

27:                                               ; preds = %22
  %28 = load ptr, ptr %4, align 8, !tbaa !92
  %29 = call i32 @memcmp(ptr noundef %28, ptr noundef @.str.46, i64 noundef 4) #16
  %30 = icmp ne i32 %29, 0
  br i1 %30, label %32, label %31

31:                                               ; preds = %27
  store i32 5, ptr %2, align 4
  store i32 1, ptr %5, align 4
  br label %46

32:                                               ; preds = %27
  store i32 6, ptr %2, align 4
  store i32 1, ptr %5, align 4
  br label %46

33:                                               ; preds = %1
  %34 = load ptr, ptr %4, align 8, !tbaa !92
  %35 = call i32 @memcmp(ptr noundef %34, ptr noundef @.str.47, i64 noundef 6) #16
  %36 = icmp ne i32 %35, 0
  br i1 %36, label %38, label %37

37:                                               ; preds = %33
  store i32 1, ptr %2, align 4
  store i32 1, ptr %5, align 4
  br label %46

38:                                               ; preds = %33
  store i32 6, ptr %2, align 4
  store i32 1, ptr %5, align 4
  br label %46

39:                                               ; preds = %1
  %40 = load ptr, ptr %4, align 8, !tbaa !92
  %41 = call i32 @memcmp(ptr noundef %40, ptr noundef @.str.48, i64 noundef 7) #16
  %42 = icmp ne i32 %41, 0
  br i1 %42, label %44, label %43

43:                                               ; preds = %39
  store i32 2, ptr %2, align 4
  store i32 1, ptr %5, align 4
  br label %46

44:                                               ; preds = %39
  store i32 6, ptr %2, align 4
  store i32 1, ptr %5, align 4
  br label %46

45:                                               ; preds = %1
  store i32 6, ptr %2, align 4
  store i32 1, ptr %5, align 4
  br label %46

46:                                               ; preds = %45, %44, %43, %38, %37, %32, %31, %26, %21, %16, %15
  call void @llvm.lifetime.end.p0(i64 8, ptr %4) #13
  %47 = load i32, ptr %2, align 4
  ret i32 %47
}