; Function Attrs: mustprogress nofree nounwind willreturn memory(argmem: read) uwtable
define internal fastcc range(i32 0, 7) i32 @patch_op_get(i64 %.0.val, ptr readonly captures(none) %.8.val) unnamed_addr #16 {
  %1 = lshr i64 %.0.val, 8
  switch i64 %1, label %8 [
    i64 3, label %2
    i64 4, label %3
    i64 6, label %6
    i64 7, label %7
  ]

2:                                                ; preds = %0
  %bcmp16 = tail call i32 @bcmp(ptr noundef nonnull dereferenceable(3) %.8.val, ptr noundef nonnull dereferenceable(3) @.str.43, i64 3)
  %.not17 = icmp eq i32 %bcmp16, 0
  %. = select i1 %.not17, i32 0, i32 6
  br label %8

3:                                                ; preds = %0
  %bcmp10 = tail call i32 @bcmp(ptr noundef nonnull dereferenceable(4) %.8.val, ptr noundef nonnull dereferenceable(4) @.str.44, i64 4)
  %.not11 = icmp eq i32 %bcmp10, 0
  br i1 %.not11, label %8, label %4

4:                                                ; preds = %3
  %bcmp12 = tail call i32 @bcmp(ptr noundef nonnull dereferenceable(4) %.8.val, ptr noundef nonnull dereferenceable(4) @.str.45, i64 4)
  %.not13 = icmp eq i32 %bcmp12, 0
  br i1 %.not13, label %8, label %5

5:                                                ; preds = %4
  %bcmp14 = tail call i32 @bcmp(ptr noundef nonnull dereferenceable(4) %.8.val, ptr noundef nonnull dereferenceable(4) @.str.46, i64 4)
  %.not15 = icmp eq i32 %bcmp14, 0
  %.18 = select i1 %.not15, i32 5, i32 6
  br label %8

6:                                                ; preds = %0
  %bcmp8 = tail call i32 @bcmp(ptr noundef nonnull dereferenceable(6) %.8.val, ptr noundef nonnull dereferenceable(6) @.str.47, i64 6)
  %.not9 = icmp eq i32 %bcmp8, 0
  %.19 = select i1 %.not9, i32 1, i32 6
  br label %8

7:                                                ; preds = %0
  %bcmp = tail call i32 @bcmp(ptr noundef nonnull dereferenceable(7) %.8.val, ptr noundef nonnull dereferenceable(7) @.str.48, i64 7)
  %.not = icmp eq i32 %bcmp, 0
  %.20 = select i1 %.not, i32 2, i32 6
  br label %8

8:                                                ; preds = %0, %7, %6, %5, %4, %3, %2
  %.0 = phi i32 [ %., %2 ], [ 3, %3 ], [ 4, %4 ], [ %.18, %5 ], [ %.19, %6 ], [ %.20, %7 ], [ 6, %0 ]
  ret i32 %.0
}